target datalayout = "e-m:e-p270:32:32-p271:32:32-p272:64:64-i64:64-i128:128-f80:128-n8:16:32:64-S128"
target triple = "x86_64-pc-linux-gnu"

%struct.ConvolveParams = type { i32, ptr, i32, i32, i32, i32, i32, i32, i32, i32 }

; Function Attrs: nounwind uwtable
define internal zeroext i8 @clip_pixel(i32 noundef %0) #0 {
  %2 = alloca i32, align 4
  store i32 %0, ptr %2, align 4
  %3 = load i32, ptr %2, align 4
  %4 = icmp sgt i32 %3, 255
  br i1 %4, label %5, label %6

5:                                                ; preds = %1
  br label %14

6:                                                ; preds = %1
  %7 = load i32, ptr %2, align 4
  %8 = icmp slt i32 %7, 0
  br i1 %8, label %9, label %10

9:                                                ; preds = %6
  br label %12

10:                                               ; preds = %6
  %11 = load i32, ptr %2, align 4
  br label %12

12:                                               ; preds = %10, %9
  %13 = phi i32 [ 0, %9 ], [ %11, %10 ]
  br label %14

14:                                               ; preds = %12, %5
  %15 = phi i32 [ 255, %5 ], [ %13, %12 ]
  %16 = trunc i32 %15 to i8
  ret i8 %16
}

; Function Attrs: nounwind uwtable
define hidden void @av1_dist_wtd_convolve_2d_copy_c(ptr noundef %0, i32 noundef %1, ptr noundef %2, i32 noundef %3, i32 noundef %4, i32 noundef %5, ptr noundef %6) #0 {
  %8 = alloca ptr, align 8
  %9 = alloca i32, align 4
  %10 = alloca ptr, align 8
  %11 = alloca i32, align 4
  %12 = alloca i32, align 4
  %13 = alloca i32, align 4
  %14 = alloca ptr, align 8
  %15 = alloca ptr, align 8
  %16 = alloca i32, align 4
  %17 = alloca i32, align 4
  %18 = alloca i32, align 4
  %19 = alloca i32, align 4
  %20 = alloca i32, align 4
  %21 = alloca i32, align 4
  %22 = alloca i32, align 4
  %23 = alloca i16, align 2
  %24 = alloca i32, align 4
  store ptr %0, ptr %8, align 8
  store i32 %1, ptr %9, align 4
  store ptr %2, ptr %10, align 8
  store i32 %3, ptr %11, align 4
  store i32 %4, ptr %12, align 4
  store i32 %5, ptr %13, align 4
  store ptr %6, ptr %14, align 8
  %25 = load ptr, ptr %14, align 8
  %26 = getelementptr inbounds nuw %struct.ConvolveParams, ptr %25, i32 0, i32 1
  %27 = load ptr, ptr %26, align 8
  store ptr %27, ptr %15, align 8
  %28 = load ptr, ptr %14, align 8
  %29 = getelementptr inbounds nuw %struct.ConvolveParams, ptr %28, i32 0, i32 2
  %30 = load i32, ptr %29, align 8
  store i32 %30, ptr %16, align 4
  %31 = load ptr, ptr %14, align 8
  %32 = getelementptr inbounds nuw %struct.ConvolveParams, ptr %31, i32 0, i32 4
  %33 = load i32, ptr %32, align 8
  %34 = sub nsw i32 14, %33
  %35 = load ptr, ptr %14, align 8
  %36 = getelementptr inbounds nuw %struct.ConvolveParams, ptr %35, i32 0, i32 3
  %37 = load i32, ptr %36, align 4
  %38 = sub nsw i32 %34, %37
  store i32 %38, ptr %17, align 4
  store i32 8, ptr %18, align 4
  %39 = load ptr, ptr %14, align 8
  %40 = getelementptr inbounds nuw %struct.ConvolveParams, ptr %39, i32 0, i32 3
  %41 = load i32, ptr %40, align 4
  %42 = sub nsw i32 22, %41
  store i32 %42, ptr %19, align 4
  %43 = load i32, ptr %19, align 4
  %44 = load ptr, ptr %14, align 8
  %45 = getelementptr inbounds nuw %struct.ConvolveParams, ptr %44, i32 0, i32 4
  %46 = load i32, ptr %45, align 8
  %47 = sub nsw i32 %43, %46
  %48 = shl i32 1, %47
  %49 = load i32, ptr %19, align 4
  %50 = load ptr, ptr %14, align 8
  %51 = getelementptr inbounds nuw %struct.ConvolveParams, ptr %50, i32 0, i32 4
  %52 = load i32, ptr %51, align 8
  %53 = sub nsw i32 %49, %52
  %54 = sub nsw i32 %53, 1
  %55 = shl i32 1, %54
  %56 = add nsw i32 %48, %55
  store i32 %56, ptr %20, align 4
  store i32 0, ptr %21, align 4
  br label %57

57:                                               ; preds = %161, %7
  %58 = load i32, ptr %21, align 4
  %59 = load i32, ptr %13, align 4
  %60 = icmp slt i32 %58, %59
  br i1 %60, label %61, label %164

61:                                               ; preds = %57
  store i32 0, ptr %22, align 4
  br label %62

62:                                               ; preds = %157, %61
  %63 = load i32, ptr %22, align 4
  %64 = load i32, ptr %12, align 4
  %65 = icmp slt i32 %63, %64
  br i1 %65, label %66, label %160

66:                                               ; preds = %62
  %67 = load ptr, ptr %8, align 8
  %68 = load i32, ptr %21, align 4
  %69 = load i32, ptr %9, align 4
  %70 = mul nsw i32 %68, %69
  %71 = load i32, ptr %22, align 4
  %72 = add nsw i32 %70, %71
  %73 = sext i32 %72 to i64
  %74 = getelementptr inbounds i8, ptr %67, i64 %73
  %75 = load i8, ptr %74, align 1
  %76 = zext i8 %75 to i32
  %77 = load i32, ptr %17, align 4
  %78 = shl i32 %76, %77
  %79 = trunc i32 %78 to i16
  store i16 %79, ptr %23, align 2
  %80 = load i32, ptr %20, align 4
  %81 = load i16, ptr %23, align 2
  %82 = zext i16 %81 to i32
  %83 = add nsw i32 %82, %80
  %84 = trunc i32 %83 to i16
  store i16 %84, ptr %23, align 2
  %85 = load ptr, ptr %14, align 8
  %86 = getelementptr inbounds nuw %struct.ConvolveParams, ptr %85, i32 0, i32 0
  %87 = load i32, ptr %86, align 8
  %88 = icmp ne i32 %87, 0
  br i1 %88, label %89, label %146

89:                                               ; preds = %66
  %90 = load ptr, ptr %15, align 8
  %91 = load i32, ptr %21, align 4
  %92 = load i32, ptr %16, align 4
  %93 = mul nsw i32 %91, %92
  %94 = load i32, ptr %22, align 4
  %95 = add nsw i32 %93, %94
  %96 = sext i32 %95 to i64
  %97 = getelementptr inbounds i16, ptr %90, i64 %96
  %98 = load i16, ptr %97, align 2
  %99 = zext i16 %98 to i32
  store i32 %99, ptr %24, align 4
  %100 = load ptr, ptr %14, align 8
  %101 = getelementptr inbounds nuw %struct.ConvolveParams, ptr %100, i32 0, i32 7
  %102 = load i32, ptr %101, align 4
  %103 = icmp ne i32 %102, 0
  br i1 %103, label %104, label %119

104:                                              ; preds = %89
  %105 = load i32, ptr %24, align 4
  %106 = load ptr, ptr %14, align 8
  %107 = getelementptr inbounds nuw %struct.ConvolveParams, ptr %106, i32 0, i32 8
  %108 = load i32, ptr %107, align 8
  %109 = mul nsw i32 %105, %108
  %110 = load i16, ptr %23, align 2
  %111 = zext i16 %110 to i32
  %112 = load ptr, ptr %14, align 8
  %113 = getelementptr inbounds nuw %struct.ConvolveParams, ptr %112, i32 0, i32 9
  %114 = load i32, ptr %113, align 4
  %115 = mul nsw i32 %111, %114
  %116 = add nsw i32 %109, %115
  store i32 %116, ptr %24, align 4
  %117 = load i32, ptr %24, align 4
  %118 = ashr i32 %117, 4
  store i32 %118, ptr %24, align 4
  br label %126

119:                                              ; preds = %89
  %120 = load i16, ptr %23, align 2
  %121 = zext i16 %120 to i32
  %122 = load i32, ptr %24, align 4
  %123 = add nsw i32 %122, %121
  store i32 %123, ptr %24, align 4
  %124 = load i32, ptr %24, align 4
  %125 = ashr i32 %124, 1
  store i32 %125, ptr %24, align 4
  br label %126

126:                                              ; preds = %119, %104
  %127 = load i32, ptr %20, align 4
  %128 = load i32, ptr %24, align 4
  %129 = sub nsw i32 %128, %127
  store i32 %129, ptr %24, align 4
  %130 = load i32, ptr %24, align 4
  %131 = load i32, ptr %17, align 4
  %132 = shl i32 1, %131
  %133 = ashr i32 %132, 1
  %134 = add nsw i32 %130, %133
  %135 = load i32, ptr %17, align 4
  %136 = ashr i32 %134, %135
  %137 = call zeroext i8 @clip_pixel(i32 noundef %136)
  %138 = load ptr, ptr %10, align 8
  %139 = load i32, ptr %21, align 4
  %140 = load i32, ptr %11, align 4
  %141 = mul nsw i32 %139, %140
  %142 = load i32, ptr %22, align 4
  %143 = add nsw i32 %141, %142
  %144 = sext i32 %143 to i64
  %145 = getelementptr inbounds i8, ptr %138, i64 %144
  store i8 %137, ptr %145, align 1
  br label %156

146:                                              ; preds = %66
  %147 = load i16, ptr %23, align 2
  %148 = load ptr, ptr %15, align 8
  %149 = load i32, ptr %21, align 4
  %150 = load i32, ptr %16, align 4
  %151 = mul nsw i32 %149, %150
  %152 = load i32, ptr %22, align 4
  %153 = add nsw i32 %151, %152
  %154 = sext i32 %153 to i64
  %155 = getelementptr inbounds i16, ptr %148, i64 %154
  store i16 %147, ptr %155, align 2
  br label %156

156:                                              ; preds = %146, %126
  br label %157

157:                                              ; preds = %156
  %158 = load i32, ptr %22, align 4
  %159 = add nsw i32 %158, 1
  store i32 %159, ptr %22, align 4
  br label %62, !llvm.loop !41

160:                                              ; preds = %62
  br label %161

161:                                              ; preds = %160
  %162 = load i32, ptr %21, align 4
  %163 = add nsw i32 %162, 1
  store i32 %163, ptr %21, align 4
  br label %57, !llvm.loop !42

164:                                              ; preds = %57
  ret void
}