; Function Attrs: nofree norecurse nosync nounwind memory(readwrite, inaccessiblemem: none) uwtable
define hidden void @av1_dist_wtd_convolve_2d_copy_c(ptr noundef readonly captures(none) %0, i32 noundef %1, ptr noundef writeonly captures(none) %2, i32 noundef %3, i32 noundef %4, i32 noundef %5, ptr noundef readonly captures(none) %6) local_unnamed_addr #2 {
  %8 = getelementptr inbounds nuw i8, ptr %6, i64 8
  %9 = load ptr, ptr %8, align 8
  %10 = getelementptr inbounds nuw i8, ptr %6, i64 16
  %11 = load i32, ptr %10, align 8
  %12 = getelementptr inbounds nuw i8, ptr %6, i64 24
  %13 = load i32, ptr %12, align 8
  %14 = getelementptr inbounds nuw i8, ptr %6, i64 20
  %15 = load i32, ptr %14, align 4
  %16 = add i32 %15, %13
  %17 = sub i32 14, %16
  %18 = sub i32 22, %16
  %19 = shl nuw i32 1, %18
  %20 = sub i32 21, %16
  %21 = shl nuw i32 1, %20
  %22 = add nsw i32 %19, %21
  %23 = icmp sgt i32 %5, 0
  br i1 %23, label %.preheader.lr.ph, label %._crit_edge54

.preheader.lr.ph:                                 ; preds = %7
  %24 = icmp sgt i32 %4, 0
  %25 = getelementptr inbounds nuw i8, ptr %6, i64 36
  %26 = getelementptr inbounds nuw i8, ptr %6, i64 40
  %27 = getelementptr inbounds nuw i8, ptr %6, i64 44
  %28 = shl nuw i32 1, %17
  %29 = ashr i32 %28, 1
  %30 = sub i32 %29, %22
  br i1 %24, label %.preheader.us.preheader, label %._crit_edge54

.preheader.us.preheader:                          ; preds = %.preheader.lr.ph
  %31 = sext i32 %1 to i64
  %32 = sext i32 %11 to i64
  %33 = sext i32 %3 to i64
  %wide.trip.count60 = zext nneg i32 %5 to i64
  %wide.trip.count = zext nneg i32 %4 to i64
  br label %.preheader.us

.preheader.us:                                    ; preds = %.preheader.us.preheader, %._crit_edge.us
  %indvars.iv57 = phi i64 [ 0, %.preheader.us.preheader ], [ %indvars.iv.next58, %._crit_edge.us ]
  %34 = mul nsw i64 %indvars.iv57, %31
  %35 = mul nsw i64 %indvars.iv57, %32
  %36 = mul nsw i64 %indvars.iv57, %33
  %invariant.gep = getelementptr i8, ptr %0, i64 %34
  %invariant.gep62 = getelementptr i16, ptr %9, i64 %35
  %invariant.gep64 = getelementptr i8, ptr %2, i64 %36
  %invariant.gep66 = getelementptr i16, ptr %9, i64 %35
  br label %37

37:                                               ; preds = %.preheader.us, %67
  %indvars.iv = phi i64 [ 0, %.preheader.us ], [ %indvars.iv.next, %67 ]
  %gep = getelementptr i8, ptr %invariant.gep, i64 %indvars.iv
  %38 = load i8, ptr %gep, align 1
  %39 = zext i8 %38 to i32
  %40 = shl i32 %39, %17
  %41 = add i32 %40, %22
  %42 = load i32, ptr %6, align 8
  %.not.us = icmp eq i32 %42, 0
  br i1 %.not.us, label %65, label %43

43:                                               ; preds = %37
  %gep63 = getelementptr i16, ptr %invariant.gep62, i64 %indvars.iv
  %44 = load i16, ptr %gep63, align 2
  %45 = zext i16 %44 to i32
  %46 = load i32, ptr %25, align 4
  %.not51.us = icmp eq i32 %46, 0
  br i1 %.not51.us, label %55, label %47

47:                                               ; preds = %43
  %48 = load i32, ptr %26, align 8
  %49 = mul nsw i32 %48, %45
  %50 = and i32 %41, 65535
  %51 = load i32, ptr %27, align 4
  %52 = mul nsw i32 %51, %50
  %53 = add nsw i32 %52, %49
  %54 = ashr i32 %53, 4
  br label %59

55:                                               ; preds = %43
  %56 = and i32 %41, 65535
  %57 = add nuw nsw i32 %56, %45
  %58 = lshr i32 %57, 1
  br label %59

59:                                               ; preds = %55, %47
  %.0.us = phi i32 [ %54, %47 ], [ %58, %55 ]
  %60 = add i32 %30, %.0.us
  %61 = ashr i32 %60, %17
  %62 = tail call i32 @llvm.smax.i32(i32 %61, i32 0)
  %63 = tail call i32 @llvm.umin.i32(i32 %62, i32 255)
  %64 = trunc nuw i32 %63 to i8
  %gep65 = getelementptr i8, ptr %invariant.gep64, i64 %indvars.iv
  store i8 %64, ptr %gep65, align 1
  br label %67

65:                                               ; preds = %37
  %66 = trunc i32 %41 to i16
  %gep67 = getelementptr i16, ptr %invariant.gep66, i64 %indvars.iv
  store i16 %66, ptr %gep67, align 2
  br label %67

67:                                               ; preds = %65, %59
  %indvars.iv.next = add nuw nsw i64 %indvars.iv, 1
  %exitcond.not = icmp eq i64 %indvars.iv.next, %wide.trip.count
  br i1 %exitcond.not, label %._crit_edge.us, label %37, !llvm.loop !41

._crit_edge.us:                                   ; preds = %67
  %indvars.iv.next58 = add nuw nsw i64 %indvars.iv57, 1
  %exitcond61.not = icmp eq i64 %indvars.iv.next58, %wide.trip.count60
  br i1 %exitcond61.not, label %._crit_edge54, label %.preheader.us, !llvm.loop !42

._crit_edge54:                                    ; preds = %._crit_edge.us, %.preheader.lr.ph, %7
  ret void
}